target datalayout = "e-m:e-p270:32:32-p271:32:32-p272:64:64-i64:64-i128:128-f80:128-n8:16:32:64-S128"
target triple = "x86_64-pc-linux-gnu"

%struct.expert_field = type { i32, i32 }
%struct.MessageHeader = type { [4 x i8], %struct.Version, i8, i8, i32, i32, i32, ptr }
%struct.Version = type { i8, i8 }

@hf_GIAS_AccessManager_get_number_of_priorities_return = internal global i32 0, align 4
@ei_gias_unknown_giop_msg = internal global %struct.expert_field zeroinitializer, align 4
@ei_gias_unknown_exception = internal global %struct.expert_field zeroinitializer, align 4
@boundary = internal global i32 12, align 4
@.str.826 = private unnamed_addr constant [21 x i8] c"Unknown exception %d\00", align 1
@.str.827 = private unnamed_addr constant [24 x i8] c"Unknown GIOP message %d\00", align 1

; Function Attrs: null_pointer_is_valid sspstrong uwtable
define internal void @decode_GIAS_AccessManager_get_number_of_priorities(ptr noundef %0, ptr noundef %1, ptr noundef %2, ptr noundef %3, ptr noundef %4, ptr noundef %5, ptr noundef %6, i1 noundef zeroext %7) #0 {
  %9 = alloca ptr, align 8
  %10 = alloca ptr, align 8
  %11 = alloca ptr, align 8
  %12 = alloca ptr, align 8
  %13 = alloca ptr, align 8
  %14 = alloca ptr, align 8
  %15 = alloca ptr, align 8
  %16 = alloca i8, align 1
  store ptr %0, ptr %9, align 8
  store ptr %1, ptr %10, align 8
  store ptr %2, ptr %11, align 8
  store ptr %3, ptr %12, align 8
  store ptr %4, ptr %13, align 8
  store ptr %5, ptr %14, align 8
  store ptr %6, ptr %15, align 8
  %17 = zext i1 %7 to i8
  store i8 %17, ptr %16, align 1
  %18 = load ptr, ptr %14, align 8
  %19 = getelementptr inbounds nuw %struct.MessageHeader, ptr %18, i32 0, i32 3
  %20 = load i8, ptr %19, align 1
  %21 = zext i8 %20 to i32
  switch i32 %21, label %49 [
    i32 0, label %57
    i32 1, label %22
  ]

22:                                               ; preds = %8
  %23 = load ptr, ptr %14, align 8
  %24 = getelementptr inbounds nuw %struct.MessageHeader, ptr %23, i32 0, i32 6
  %25 = load i32, ptr %24, align 8
  switch i32 %25, label %41 [
    i32 0, label %26
    i32 1, label %48
  ]

26:                                               ; preds = %22
  %27 = load ptr, ptr %11, align 8
  %28 = load i32, ptr @hf_GIAS_AccessManager_get_number_of_priorities_return, align 4
  %29 = load ptr, ptr %9, align 8
  %30 = load ptr, ptr %13, align 8
  %31 = load i32, ptr %30, align 4
  %32 = sub i32 %31, 2
  %33 = load ptr, ptr %9, align 8
  %34 = load ptr, ptr %13, align 8
  %35 = load i8, ptr %16, align 1, !range !6, !noundef !7
  %36 = trunc i8 %35 to i1
  %37 = load i32, ptr @boundary, align 4
  %38 = call signext i16 @get_CDR_short(ptr noundef %33, ptr noundef %34, i1 noundef zeroext %36, i32 noundef %37)
  %39 = sext i16 %38 to i32
  %40 = call ptr @proto_tree_add_int(ptr noundef %27, i32 noundef %28, ptr noundef %29, i32 noundef %32, i32 noundef 2, i32 noundef %39)
  br label %48

41:                                               ; preds = %22
  %42 = load ptr, ptr %10, align 8
  %43 = load ptr, ptr %12, align 8
  %44 = load ptr, ptr %14, align 8
  %45 = getelementptr inbounds nuw %struct.MessageHeader, ptr %44, i32 0, i32 6
  %46 = load i32, ptr %45, align 8
  %47 = call ptr (ptr, ptr, ptr, ptr, ...) @expert_add_info_format(ptr noundef %42, ptr noundef %43, ptr noundef @ei_gias_unknown_exception, ptr noundef @.str.826, i32 noundef %46)
  br label %48

48:                                               ; preds = %41, %22, %26
  br label %57

49:                                               ; preds = %8
  %50 = load ptr, ptr %10, align 8
  %51 = load ptr, ptr %12, align 8
  %52 = load ptr, ptr %14, align 8
  %53 = getelementptr inbounds nuw %struct.MessageHeader, ptr %52, i32 0, i32 3
  %54 = load i8, ptr %53, align 1
  %55 = zext i8 %54 to i32
  %56 = call ptr (ptr, ptr, ptr, ptr, ...) @expert_add_info_format(ptr noundef %50, ptr noundef %51, ptr noundef @ei_gias_unknown_giop_msg, ptr noundef @.str.827, i32 noundef %55)
  br label %57

57:                                               ; preds = %49, %48, %8
  ret void
}